; Function Attrs: mustprogress uwtable
define noundef ptr @_Z28gmx_mtop_atomloop_block_initRK10gmx_mtop_t(ptr noundef nonnull align 8 dereferenceable(768) %0) local_unnamed_addr #3 {
  %2 = tail call noundef ptr @_Z11save_callocPKcS0_imm(ptr noundef nonnull @.str, ptr noundef nonnull @.str.1, i32 noundef 142, i64 noundef 1, i64 noundef 32)
  store ptr %0, ptr %2, align 8
  %3 = getelementptr inbounds i8, ptr %2, i64 8
  store i64 0, ptr %3, align 8
  %4 = getelementptr inbounds i8, ptr %0, i64 112
  %5 = getelementptr inbounds i8, ptr %0, i64 136
  %6 = load ptr, ptr %5, align 8
  %7 = load i32, ptr %6, align 8
  %8 = sext i32 %7 to i64
  %9 = load ptr, ptr %4, align 8
  %10 = getelementptr inbounds %struct.gmx_moltype_t, ptr %9, i64 %8, i32 1
  %11 = getelementptr inbounds i8, ptr %2, i64 16
  store ptr %10, ptr %11, align 8
  %12 = getelementptr inbounds i8, ptr %2, i64 24
  store i32 -1, ptr %12, align 8
  ret ptr %2
}